; Function Attrs: mustprogress uwtable
define hidden void @_ZN4ncnn5SplitC2Ev(ptr noundef nonnull align 8 dereferenceable(208) %0) unnamed_addr #0 align 2 personality ptr @__gxx_personality_v0 {
  tail call void @_ZN4ncnn5LayerC2Ev(ptr noundef nonnull align 8 dereferenceable(208) %0)
  store ptr getelementptr inbounds inrange(-16, 80) (i8, ptr @_ZTVN4ncnn5SplitE, i64 16), ptr %0, align 8
  %2 = getelementptr inbounds nuw i8, ptr %0, i64 8
  store i8 0, ptr %2, align 8
  %3 = getelementptr inbounds nuw i8, ptr %0, i64 9
  store i8 0, ptr %3, align 1
  %4 = getelementptr inbounds nuw i8, ptr %0, i64 11
  store i8 1, ptr %4, align 1
  %5 = invoke noundef i32 @_ZN4ncnn23cpu_support_arm_asimdhpEv()
          to label %6 unwind label %16

6:                                                ; preds = %1
  %.not = icmp eq i32 %5, 0
  br i1 %.not, label %7, label %12

7:                                                ; preds = %6
  %8 = invoke noundef i32 @_ZN4ncnn21cpu_support_riscv_zfhEv()
          to label %9 unwind label %16

9:                                                ; preds = %7
  %10 = icmp ne i32 %8, 0
  %11 = zext i1 %10 to i8
  br label %12

12:                                               ; preds = %9, %6
  %13 = phi i8 [ 1, %6 ], [ %11, %9 ]
  %14 = getelementptr inbounds nuw i8, ptr %0, i64 13
  store i8 %13, ptr %14, align 1
  %15 = getelementptr inbounds nuw i8, ptr %0, i64 12
  store i8 1, ptr %15, align 4
  ret void

16:                                               ; preds = %7, %1
  %17 = landingpad { ptr, i32 }
          cleanup
  tail call void @_ZN4ncnn5LayerD2Ev(ptr noundef nonnull align 8 dereferenceable(208) %0) #7
  resume { ptr, i32 } %17
}